target datalayout = "e-m:e-p270:32:32-p271:32:32-p272:64:64-i64:64-i128:128-f80:128-n8:16:32:64-S128"
target triple = "x86_64-pc-linux-gnu"

%struct.cinfo_tag = type { i32, i32, i32, i32, i32, i32, i32, i32, i32, i32, i32, i32, i32, i32, i32, i32, i32, i64, i64, i64 }
%struct.cube = type { i8, i8, i16, i16, i16, ptr, ptr, ptr, ptr }

@BitCount = global [65536 x i8] zeroinitializer, align 16
@BitGroupNumbers = internal global [65536 x i8] zeroinitializer, align 16
@DiffVarCounter = internal global i32 0, align 4
@g_CoverInfo = external global %struct.cinfo_tag, align 8
@Temp1 = internal global i32 0, align 4
@Temp2 = internal global i32 0, align 4
@Temp = internal global i32 0, align 4
@cVars = internal global i32 0, align 4

; Function Attrs: nounwind uwtable
define i32 @FindDiffVars(ptr noundef %0, ptr noundef %1, ptr noundef %2) #0 {
  %4 = alloca i32, align 4
  %5 = alloca ptr, align 8
  %6 = alloca ptr, align 8
  %7 = alloca ptr, align 8
  %8 = alloca i32, align 4
  %9 = alloca i32, align 4
  %10 = alloca i32, align 4
  store ptr %0, ptr %5, align 8, !tbaa !28
  store ptr %1, ptr %6, align 8, !tbaa !11
  store ptr %2, ptr %7, align 8, !tbaa !11
  call void @llvm.lifetime.start.p0(i64 4, ptr %8) #4
  call void @llvm.lifetime.start.p0(i64 4, ptr %9) #4
  store i32 0, ptr @DiffVarCounter, align 4, !tbaa !3
  store i32 0, ptr %8, align 4, !tbaa !3
  br label %11

11:                                               ; preds = %35, %3
  %12 = load i32, ptr %8, align 4, !tbaa !3
  %13 = load i32, ptr getelementptr inbounds nuw (%struct.cinfo_tag, ptr @g_CoverInfo, i32 0, i32 3), align 4, !tbaa !22
  %14 = icmp slt i32 %12, %13
  br i1 %14, label %15, label %38

15:                                               ; preds = %11
  %16 = load ptr, ptr %6, align 8, !tbaa !11
  %17 = getelementptr inbounds nuw %struct.cube, ptr %16, i32 0, i32 6
  %18 = load ptr, ptr %17, align 8, !tbaa !23
  %19 = load i32, ptr %8, align 4, !tbaa !3
  %20 = sext i32 %19 to i64
  %21 = getelementptr inbounds i32, ptr %18, i64 %20
  %22 = load i32, ptr %21, align 4, !tbaa !3
  %23 = load ptr, ptr %7, align 8, !tbaa !11
  %24 = getelementptr inbounds nuw %struct.cube, ptr %23, i32 0, i32 6
  %25 = load ptr, ptr %24, align 8, !tbaa !23
  %26 = load i32, ptr %8, align 4, !tbaa !3
  %27 = sext i32 %26 to i64
  %28 = getelementptr inbounds i32, ptr %25, i64 %27
  %29 = load i32, ptr %28, align 4, !tbaa !3
  %30 = icmp ne i32 %22, %29
  br i1 %30, label %31, label %34

31:                                               ; preds = %15
  %32 = load ptr, ptr %5, align 8, !tbaa !28
  %33 = getelementptr inbounds i32, ptr %32, i64 0
  store i32 -1, ptr %33, align 4, !tbaa !3
  store i32 1, ptr @DiffVarCounter, align 4, !tbaa !3
  br label %38

34:                                               ; preds = %15
  br label %35

35:                                               ; preds = %34
  %36 = load i32, ptr %8, align 4, !tbaa !3
  %37 = add nsw i32 %36, 1
  store i32 %37, ptr %8, align 4, !tbaa !3
  br label %11, !llvm.loop !29

38:                                               ; preds = %31, %11
  store i32 0, ptr %8, align 4, !tbaa !3
  br label %39

39:                                               ; preds = %161, %38
  %40 = load i32, ptr %8, align 4, !tbaa !3
  %41 = load i32, ptr getelementptr inbounds nuw (%struct.cinfo_tag, ptr @g_CoverInfo, i32 0, i32 2), align 8, !tbaa !18
  %42 = icmp slt i32 %40, %41
  br i1 %42, label %43, label %164

43:                                               ; preds = %39
  %44 = load ptr, ptr %6, align 8, !tbaa !11
  %45 = getelementptr inbounds nuw %struct.cube, ptr %44, i32 0, i32 5
  %46 = load ptr, ptr %45, align 8, !tbaa !14
  %47 = load i32, ptr %8, align 4, !tbaa !3
  %48 = sext i32 %47 to i64
  %49 = getelementptr inbounds i32, ptr %46, i64 %48
  %50 = load i32, ptr %49, align 4, !tbaa !3
  %51 = load ptr, ptr %7, align 8, !tbaa !11
  %52 = getelementptr inbounds nuw %struct.cube, ptr %51, i32 0, i32 5
  %53 = load ptr, ptr %52, align 8, !tbaa !14
  %54 = load i32, ptr %8, align 4, !tbaa !3
  %55 = sext i32 %54 to i64
  %56 = getelementptr inbounds i32, ptr %53, i64 %55
  %57 = load i32, ptr %56, align 4, !tbaa !3
  %58 = xor i32 %50, %57
  store i32 %58, ptr @Temp1, align 4, !tbaa !3
  %59 = load i32, ptr @Temp1, align 4, !tbaa !3
  %60 = load i32, ptr @Temp1, align 4, !tbaa !3
  %61 = lshr i32 %60, 1
  %62 = or i32 %59, %61
  %63 = and i32 %62, 1431655765
  store i32 %63, ptr @Temp2, align 4, !tbaa !3
  %64 = load i32, ptr @Temp2, align 4, !tbaa !3
  %65 = and i32 %64, 65535
  store i32 %65, ptr @Temp, align 4, !tbaa !3
  %66 = load i32, ptr @Temp, align 4, !tbaa !3
  %67 = zext i32 %66 to i64
  %68 = getelementptr inbounds nuw [65536 x i8], ptr @BitCount, i64 0, i64 %67
  %69 = load i8, ptr %68, align 1, !tbaa !7
  %70 = zext i8 %69 to i32
  store i32 %70, ptr @cVars, align 4, !tbaa !3
  %71 = load i32, ptr @cVars, align 4, !tbaa !3
  %72 = icmp ne i32 %71, 0
  br i1 %72, label %73, label %107

73:                                               ; preds = %43
  %74 = load i32, ptr @cVars, align 4, !tbaa !3
  %75 = icmp slt i32 %74, 5
  br i1 %75, label %76, label %105

76:                                               ; preds = %73
  store i32 0, ptr %9, align 4, !tbaa !3
  br label %77

77:                                               ; preds = %101, %76
  %78 = load i32, ptr %9, align 4, !tbaa !3
  %79 = load i32, ptr @cVars, align 4, !tbaa !3
  %80 = icmp slt i32 %78, %79
  br i1 %80, label %81, label %104

81:                                               ; preds = %77
  %82 = load i32, ptr %8, align 4, !tbaa !3
  %83 = mul nsw i32 %82, 16
  %84 = load i32, ptr @Temp, align 4, !tbaa !3
  %85 = zext i32 %84 to i64
  %86 = getelementptr inbounds nuw [65536 x i8], ptr @BitGroupNumbers, i64 0, i64 %85
  %87 = load i8, ptr %86, align 1, !tbaa !7
  %88 = zext i8 %87 to i64
  %89 = getelementptr inbounds nuw [163 x [4 x i8]], ptr @GroupLiterals, i64 0, i64 %88
  %90 = load i32, ptr %9, align 4, !tbaa !3
  %91 = sext i32 %90 to i64
  %92 = getelementptr inbounds [4 x i8], ptr %89, i64 0, i64 %91
  %93 = load i8, ptr %92, align 1, !tbaa !7
  %94 = zext i8 %93 to i32
  %95 = add nsw i32 %83, %94
  %96 = load ptr, ptr %5, align 8, !tbaa !28
  %97 = load i32, ptr @DiffVarCounter, align 4, !tbaa !3
  %98 = add nsw i32 %97, 1
  store i32 %98, ptr @DiffVarCounter, align 4, !tbaa !3
  %99 = sext i32 %97 to i64
  %100 = getelementptr inbounds i32, ptr %96, i64 %99
  store i32 %95, ptr %100, align 4, !tbaa !3
  br label %101

101:                                              ; preds = %81
  %102 = load i32, ptr %9, align 4, !tbaa !3
  %103 = add nsw i32 %102, 1
  store i32 %103, ptr %9, align 4, !tbaa !3
  br label %77, !llvm.loop !30

104:                                              ; preds = %77
  br label %106

105:                                              ; preds = %73
  store i32 5, ptr %4, align 4
  store i32 1, ptr %10, align 4
  br label %166

106:                                              ; preds = %104
  br label %107

107:                                              ; preds = %106, %43
  %108 = load i32, ptr @DiffVarCounter, align 4, !tbaa !3
  %109 = icmp sgt i32 %108, 4
  br i1 %109, label %110, label %111

110:                                              ; preds = %107
  store i32 5, ptr %4, align 4
  store i32 1, ptr %10, align 4
  br label %166

111:                                              ; preds = %107
  %112 = load i32, ptr @Temp2, align 4, !tbaa !3
  %113 = lshr i32 %112, 16
  store i32 %113, ptr @Temp, align 4, !tbaa !3
  %114 = load i32, ptr @Temp, align 4, !tbaa !3
  %115 = zext i32 %114 to i64
  %116 = getelementptr inbounds nuw [65536 x i8], ptr @BitCount, i64 0, i64 %115
  %117 = load i8, ptr %116, align 1, !tbaa !7
  %118 = zext i8 %117 to i32
  store i32 %118, ptr @cVars, align 4, !tbaa !3
  %119 = load i32, ptr @cVars, align 4, !tbaa !3
  %120 = icmp ne i32 %119, 0
  br i1 %120, label %121, label %156

121:                                              ; preds = %111
  %122 = load i32, ptr @cVars, align 4, !tbaa !3
  %123 = icmp slt i32 %122, 5
  br i1 %123, label %124, label %154

124:                                              ; preds = %121
  store i32 0, ptr %9, align 4, !tbaa !3
  br label %125

125:                                              ; preds = %150, %124
  %126 = load i32, ptr %9, align 4, !tbaa !3
  %127 = load i32, ptr @cVars, align 4, !tbaa !3
  %128 = icmp slt i32 %126, %127
  br i1 %128, label %129, label %153

129:                                              ; preds = %125
  %130 = load i32, ptr %8, align 4, !tbaa !3
  %131 = mul nsw i32 %130, 16
  %132 = add nsw i32 %131, 8
  %133 = load i32, ptr @Temp, align 4, !tbaa !3
  %134 = zext i32 %133 to i64
  %135 = getelementptr inbounds nuw [65536 x i8], ptr @BitGroupNumbers, i64 0, i64 %134
  %136 = load i8, ptr %135, align 1, !tbaa !7
  %137 = zext i8 %136 to i64
  %138 = getelementptr inbounds nuw [163 x [4 x i8]], ptr @GroupLiterals, i64 0, i64 %137
  %139 = load i32, ptr %9, align 4, !tbaa !3
  %140 = sext i32 %139 to i64
  %141 = getelementptr inbounds [4 x i8], ptr %138, i64 0, i64 %140
  %142 = load i8, ptr %141, align 1, !tbaa !7
  %143 = zext i8 %142 to i32
  %144 = add nsw i32 %132, %143
  %145 = load ptr, ptr %5, align 8, !tbaa !28
  %146 = load i32, ptr @DiffVarCounter, align 4, !tbaa !3
  %147 = add nsw i32 %146, 1
  store i32 %147, ptr @DiffVarCounter, align 4, !tbaa !3
  %148 = sext i32 %146 to i64
  %149 = getelementptr inbounds i32, ptr %145, i64 %148
  store i32 %144, ptr %149, align 4, !tbaa !3
  br label %150

150:                                              ; preds = %129
  %151 = load i32, ptr %9, align 4, !tbaa !3
  %152 = add nsw i32 %151, 1
  store i32 %152, ptr %9, align 4, !tbaa !3
  br label %125, !llvm.loop !31

153:                                              ; preds = %125
  br label %155

154:                                              ; preds = %121
  store i32 5, ptr %4, align 4
  store i32 1, ptr %10, align 4
  br label %166

155:                                              ; preds = %153
  br label %156

156:                                              ; preds = %155, %111
  %157 = load i32, ptr @DiffVarCounter, align 4, !tbaa !3
  %158 = icmp sgt i32 %157, 4
  br i1 %158, label %159, label %160

159:                                              ; preds = %156
  store i32 5, ptr %4, align 4
  store i32 1, ptr %10, align 4
  br label %166

160:                                              ; preds = %156
  br label %161

161:                                              ; preds = %160
  %162 = load i32, ptr %8, align 4, !tbaa !3
  %163 = add nsw i32 %162, 1
  store i32 %163, ptr %8, align 4, !tbaa !3
  br label %39, !llvm.loop !32

164:                                              ; preds = %39
  %165 = load i32, ptr @DiffVarCounter, align 4, !tbaa !3
  store i32 %165, ptr %4, align 4
  store i32 1, ptr %10, align 4
  br label %166

166:                                              ; preds = %164, %159, %154, %110, %105
  call void @llvm.lifetime.end.p0(i64 4, ptr %9) #4
  call void @llvm.lifetime.end.p0(i64 4, ptr %8) #4
  %167 = load i32, ptr %4, align 4
  ret i32 %167
}