; Function Attrs: nofree norecurse nosync nounwind memory(readwrite, inaccessiblemem: none) uwtable
define range(i32 -2147483648, 6) i32 @FindDiffVars(ptr noundef writeonly captures(none) %0, ptr noundef readonly captures(none) %1, ptr noundef readonly captures(none) %2) local_unnamed_addr #5 {
  %4 = load i32, ptr getelementptr inbounds nuw (i8, ptr @g_CoverInfo, i64 12), align 4, !tbaa !21
  %5 = icmp sgt i32 %4, 0
  br i1 %5, label %.lr.ph, label %.loopexit33

.lr.ph:                                           ; preds = %3
  %6 = getelementptr inbounds nuw i8, ptr %1, i64 16
  %7 = load ptr, ptr %6, align 8, !tbaa !22
  %8 = getelementptr inbounds nuw i8, ptr %2, i64 16
  %9 = load ptr, ptr %8, align 8, !tbaa !22
  %wide.trip.count = zext nneg i32 %4 to i64
  br label %11

10:                                               ; preds = %11
  %indvars.iv.next = add nuw nsw i64 %indvars.iv, 1
  %exitcond.not = icmp eq i64 %indvars.iv.next, %wide.trip.count
  br i1 %exitcond.not, label %.loopexit33, label %11, !llvm.loop !27

11:                                               ; preds = %.lr.ph, %10
  %indvars.iv = phi i64 [ 0, %.lr.ph ], [ %indvars.iv.next, %10 ]
  %12 = getelementptr inbounds nuw i32, ptr %7, i64 %indvars.iv
  %13 = load i32, ptr %12, align 4, !tbaa !8
  %14 = getelementptr inbounds nuw i32, ptr %9, i64 %indvars.iv
  %15 = load i32, ptr %14, align 4, !tbaa !8
  %.not = icmp eq i32 %13, %15
  br i1 %.not, label %10, label %16

16:                                               ; preds = %11
  store i32 -1, ptr %0, align 4, !tbaa !8
  br label %.loopexit33

.loopexit33:                                      ; preds = %10, %3, %16
  %DiffVarCounter.promoted39 = phi i32 [ 0, %3 ], [ 1, %16 ], [ 0, %10 ]
  %17 = load i32, ptr getelementptr inbounds nuw (i8, ptr @g_CoverInfo, i64 8), align 8, !tbaa !17
  %18 = icmp sgt i32 %17, 0
  br i1 %18, label %.lr.ph45, label %.sink.split

.lr.ph45:                                         ; preds = %.loopexit33
  %19 = getelementptr inbounds nuw i8, ptr %1, i64 8
  %20 = load ptr, ptr %19, align 8, !tbaa !11
  %21 = getelementptr inbounds nuw i8, ptr %2, i64 8
  %22 = load ptr, ptr %21, align 8, !tbaa !11
  br label %26

.thread81:                                        ; preds = %.thread, %73
  %.lcssa374183 = phi i32 [ %74, %73 ], [ %.lcssa374280, %.thread ]
  %indvars.iv.next75 = add nuw nsw i64 %indvars.iv74, 1
  %23 = load i32, ptr getelementptr inbounds nuw (i8, ptr @g_CoverInfo, i64 8), align 8, !tbaa !17
  %24 = sext i32 %23 to i64
  %25 = icmp slt i64 %indvars.iv.next75, %24
  br i1 %25, label %26, label %.sink.split, !llvm.loop !28

26:                                               ; preds = %.lr.ph45, %.thread81
  %indvars.iv74 = phi i64 [ 0, %.lr.ph45 ], [ %indvars.iv.next75, %.thread81 ]
  %.lcssa374043 = phi i32 [ %DiffVarCounter.promoted39, %.lr.ph45 ], [ %.lcssa374183, %.thread81 ]
  %27 = getelementptr inbounds nuw i32, ptr %20, i64 %indvars.iv74
  %28 = load i32, ptr %27, align 4, !tbaa !8
  %29 = getelementptr inbounds nuw i32, ptr %22, i64 %indvars.iv74
  %30 = load i32, ptr %29, align 4, !tbaa !8
  %31 = xor i32 %30, %28
  %32 = lshr i32 %31, 1
  %33 = or i32 %32, %31
  %34 = and i32 %33, 21845
  %35 = zext nneg i32 %34 to i64
  %36 = getelementptr inbounds nuw [65536 x i8], ptr @BitCount, i64 0, i64 %35
  %37 = load i8, ptr %36, align 1, !tbaa !3
  %.not28 = icmp eq i8 %37, 0
  br i1 %.not28, label %.thread, label %38

38:                                               ; preds = %26
  %39 = icmp ult i8 %37, 5
  br i1 %39, label %.preheader30, label %.sink.split

.preheader30:                                     ; preds = %38
  %40 = getelementptr inbounds nuw [65536 x i8], ptr @BitGroupNumbers, i64 0, i64 %35
  %41 = load i8, ptr %40, align 1, !tbaa !3
  %42 = zext i8 %41 to i64
  %43 = sext i32 %.lcssa374043 to i64
  %wide.trip.count63 = zext nneg i8 %37 to i64
  %indvars.iv74.tr = trunc i64 %indvars.iv74 to i32
  %44 = shl i32 %indvars.iv74.tr, 4
  br label %45

45:                                               ; preds = %.preheader30, %45
  %indvars.iv58 = phi i64 [ %43, %.preheader30 ], [ %indvars.iv.next59, %45 ]
  %indvars.iv56 = phi i64 [ 0, %.preheader30 ], [ %indvars.iv.next57, %45 ]
  %46 = getelementptr inbounds nuw [163 x [4 x i8]], ptr @GroupLiterals, i64 0, i64 %42, i64 %indvars.iv56
  %47 = load i8, ptr %46, align 1, !tbaa !3
  %48 = zext i8 %47 to i32
  %49 = add nuw nsw i32 %44, %48
  %indvars.iv.next59 = add nsw i64 %indvars.iv58, 1
  %50 = getelementptr inbounds i32, ptr %0, i64 %indvars.iv58
  store i32 %49, ptr %50, align 4, !tbaa !8
  %indvars.iv.next57 = add nuw nsw i64 %indvars.iv56, 1
  %exitcond64.not = icmp eq i64 %indvars.iv.next57, %wide.trip.count63
  br i1 %exitcond64.not, label %51, label %45, !llvm.loop !29

51:                                               ; preds = %45
  %52 = trunc nsw i64 %indvars.iv.next59 to i32
  %53 = icmp sgt i64 %indvars.iv58, 3
  br i1 %53, label %.sink.split, label %.thread

.thread:                                          ; preds = %26, %51
  %.lcssa374280 = phi i32 [ %52, %51 ], [ %.lcssa374043, %26 ]
  %54 = lshr i32 %33, 16
  %55 = and i32 %54, 21845
  %56 = zext nneg i32 %55 to i64
  %57 = getelementptr inbounds nuw [65536 x i8], ptr @BitCount, i64 0, i64 %56
  %58 = load i8, ptr %57, align 1, !tbaa !3
  %.not29 = icmp eq i8 %58, 0
  br i1 %.not29, label %.thread81, label %59

59:                                               ; preds = %.thread
  %60 = icmp ult i8 %58, 5
  br i1 %60, label %.preheader, label %.sink.split

.preheader:                                       ; preds = %59
  %61 = getelementptr inbounds nuw [65536 x i8], ptr @BitGroupNumbers, i64 0, i64 %56
  %62 = load i8, ptr %61, align 1, !tbaa !3
  %63 = zext i8 %62 to i64
  %64 = sext i32 %.lcssa374280 to i64
  %wide.trip.count72 = zext nneg i8 %58 to i64
  %indvars.iv74.tr78 = trunc i64 %indvars.iv74 to i32
  %65 = shl i32 %indvars.iv74.tr78, 4
  %66 = or disjoint i32 %65, 8
  br label %67

67:                                               ; preds = %.preheader, %67
  %indvars.iv67 = phi i64 [ %64, %.preheader ], [ %indvars.iv.next68, %67 ]
  %indvars.iv65 = phi i64 [ 0, %.preheader ], [ %indvars.iv.next66, %67 ]
  %68 = getelementptr inbounds nuw [163 x [4 x i8]], ptr @GroupLiterals, i64 0, i64 %63, i64 %indvars.iv65
  %69 = load i8, ptr %68, align 1, !tbaa !3
  %70 = zext i8 %69 to i32
  %71 = add nuw nsw i32 %66, %70
  %indvars.iv.next68 = add nsw i64 %indvars.iv67, 1
  %72 = getelementptr inbounds i32, ptr %0, i64 %indvars.iv67
  store i32 %71, ptr %72, align 4, !tbaa !8
  %indvars.iv.next66 = add nuw nsw i64 %indvars.iv65, 1
  %exitcond73.not = icmp eq i64 %indvars.iv.next66, %wide.trip.count72
  br i1 %exitcond73.not, label %73, label %67, !llvm.loop !30

73:                                               ; preds = %67
  %74 = trunc nsw i64 %indvars.iv.next68 to i32
  %75 = icmp sgt i64 %indvars.iv67, 3
  br i1 %75, label %.sink.split, label %.thread81

.sink.split:                                      ; preds = %.thread81, %73, %59, %51, %38, %.loopexit33
  %.025 = phi i32 [ %DiffVarCounter.promoted39, %.loopexit33 ], [ 5, %73 ], [ 5, %59 ], [ 5, %51 ], [ 5, %38 ], [ %.lcssa374183, %.thread81 ]
  ret i32 %.025
}